; Function Attrs: alwaysinline norecurse nounwind uwtable
define internal void @_ZN8LightGBM13BinaryLogloss4InitERKNS_8MetadataEi.omp_outlined(ptr noalias noundef readonly captures(none) %0, ptr noalias readnone captures(none) %1, ptr noundef %2, ptr noundef nonnull align 4 captures(none) dereferenceable(4) %3, ptr noundef nonnull align 4 captures(none) dereferenceable(4) %4) #14 personality ptr @__gxx_personality_v0 {
  %6 = alloca float, align 4
  %7 = alloca i32, align 4
  %8 = alloca i32, align 4
  %9 = alloca i32, align 4
  %10 = alloca i32, align 4
  %11 = alloca i32, align 4
  %12 = alloca i32, align 4
  %13 = alloca [2 x ptr], align 8
  %14 = getelementptr inbounds nuw i8, ptr %2, i64 8
  %15 = load i32, ptr %14, align 8, !tbaa !358
  %16 = icmp sgt i32 %15, 0
  br i1 %16, label %17, label %64

17:                                               ; preds = %5
  %18 = add nsw i32 %15, -1
  call void @llvm.lifetime.start.p0(i64 4, ptr nonnull %7) #15
  store i32 0, ptr %7, align 4, !tbaa !127
  call void @llvm.lifetime.start.p0(i64 4, ptr nonnull %8) #15
  store i32 %18, ptr %8, align 4, !tbaa !127
  call void @llvm.lifetime.start.p0(i64 4, ptr nonnull %9) #15
  store i32 1, ptr %9, align 4, !tbaa !127
  call void @llvm.lifetime.start.p0(i64 4, ptr nonnull %10) #15
  store i32 0, ptr %10, align 4, !tbaa !127
  call void @llvm.lifetime.start.p0(i64 4, ptr nonnull %11) #15
  store i32 0, ptr %11, align 4, !tbaa !127
  call void @llvm.lifetime.start.p0(i64 4, ptr nonnull %12) #15
  store i32 0, ptr %12, align 4, !tbaa !127
  %19 = load i32, ptr %0, align 4, !tbaa !127
  call void @__kmpc_for_static_init_4(ptr nonnull @1, i32 %19, i32 34, ptr nonnull %10, ptr nonnull %7, ptr nonnull %8, ptr nonnull %9, i32 1, i32 1)
  %20 = load i32, ptr %8, align 4, !tbaa !127
  %21 = call i32 @llvm.smin.i32(i32 %20, i32 %18)
  store i32 %21, ptr %8, align 4, !tbaa !127
  %22 = load i32, ptr %7, align 4, !tbaa !127
  %.not15 = icmp sgt i32 %22, %21
  br i1 %.not15, label %._crit_edge, label %.lr.ph

.lr.ph:                                           ; preds = %17
  %23 = getelementptr inbounds nuw i8, ptr %2, i64 16
  %24 = getelementptr inbounds nuw i8, ptr %2, i64 96
  %25 = getelementptr inbounds nuw i8, ptr %2, i64 80
  %26 = getelementptr inbounds nuw i8, ptr %2, i64 104
  %27 = sext i32 %22 to i64
  br label %28

28:                                               ; preds = %.lr.ph, %44
  %29 = phi i32 [ 0, %.lr.ph ], [ %45, %44 ]
  %30 = phi i32 [ 0, %.lr.ph ], [ %46, %44 ]
  %indvars.iv = phi i64 [ %27, %.lr.ph ], [ %indvars.iv.next, %44 ]
  %31 = load ptr, ptr %23, align 8, !tbaa !359
  %32 = getelementptr inbounds float, ptr %31, i64 %indvars.iv
  %33 = load float, ptr %32, align 4, !tbaa !175
  call void @llvm.lifetime.start.p0(i64 4, ptr nonnull %6)
  store float %33, ptr %6, align 4, !tbaa !175
  %34 = load ptr, ptr %24, align 8, !tbaa !73
  %.not.i.i = icmp eq ptr %34, null
  br i1 %.not.i.i, label %35, label %36

35:                                               ; preds = %28
  invoke void @_ZSt25__throw_bad_function_callv() #38
          to label %.noexc unwind label %.loopexit.split-lp

.noexc:                                           ; preds = %35
  unreachable

36:                                               ; preds = %28
  %37 = load ptr, ptr %26, align 8, !tbaa !105
  %38 = invoke noundef zeroext i1 %37(ptr noundef nonnull align 8 dereferenceable(32) %25, ptr noundef nonnull align 4 dereferenceable(4) %6)
          to label %39 unwind label %.loopexit

39:                                               ; preds = %36
  call void @llvm.lifetime.end.p0(i64 4, ptr nonnull %6)
  br i1 %38, label %40, label %42

40:                                               ; preds = %39
  %41 = add nsw i32 %29, 1
  store i32 %41, ptr %11, align 4, !tbaa !127
  br label %44

42:                                               ; preds = %39
  %43 = add nsw i32 %30, 1
  store i32 %43, ptr %12, align 4, !tbaa !127
  br label %44

44:                                               ; preds = %42, %40
  %45 = phi i32 [ %29, %42 ], [ %41, %40 ]
  %46 = phi i32 [ %43, %42 ], [ %30, %40 ]
  %indvars.iv.next = add nsw i64 %indvars.iv, 1
  %47 = load i32, ptr %8, align 4, !tbaa !127
  %48 = sext i32 %47 to i64
  %.not.not = icmp slt i64 %indvars.iv, %48
  br i1 %.not.not, label %28, label %._crit_edge

._crit_edge:                                      ; preds = %44, %17
  call void @__kmpc_for_static_fini(ptr nonnull @1, i32 %19)
  store ptr %11, ptr %13, align 8
  %49 = getelementptr inbounds nuw i8, ptr %13, i64 8
  store ptr %12, ptr %49, align 8
  %50 = call i32 @__kmpc_reduce_nowait(ptr nonnull @3, i32 %19, i32 2, i64 16, ptr nonnull %13, ptr nonnull @_ZN8LightGBM13BinaryLogloss4InitERKNS_8MetadataEi.omp_outlined.omp.reduction.reduction_func, ptr nonnull @.gomp_critical_user_.reduction.var)
  switch i32 %50, label %63 [
    i32 1, label %51
    i32 2, label %58
  ]

51:                                               ; preds = %._crit_edge
  %52 = load i32, ptr %3, align 4, !tbaa !127
  %53 = load i32, ptr %11, align 4, !tbaa !127
  %54 = add nsw i32 %53, %52
  store i32 %54, ptr %3, align 4, !tbaa !127
  %55 = load i32, ptr %4, align 4, !tbaa !127
  %56 = load i32, ptr %12, align 4, !tbaa !127
  %57 = add nsw i32 %56, %55
  store i32 %57, ptr %4, align 4, !tbaa !127
  call void @__kmpc_end_reduce_nowait(ptr nonnull @3, i32 %19, ptr nonnull @.gomp_critical_user_.reduction.var)
  br label %63

58:                                               ; preds = %._crit_edge
  %59 = load i32, ptr %11, align 4, !tbaa !127
  %60 = atomicrmw add ptr %3, i32 %59 monotonic, align 4
  %61 = load i32, ptr %12, align 4, !tbaa !127
  %62 = atomicrmw add ptr %4, i32 %61 monotonic, align 4
  br label %63

63:                                               ; preds = %58, %51, %._crit_edge
  call void @llvm.lifetime.end.p0(i64 4, ptr nonnull %12) #15
  call void @llvm.lifetime.end.p0(i64 4, ptr nonnull %11) #15
  call void @llvm.lifetime.end.p0(i64 4, ptr nonnull %10) #15
  call void @llvm.lifetime.end.p0(i64 4, ptr nonnull %9) #15
  call void @llvm.lifetime.end.p0(i64 4, ptr nonnull %8) #15
  call void @llvm.lifetime.end.p0(i64 4, ptr nonnull %7) #15
  br label %64

64:                                               ; preds = %63, %5
  ret void

.loopexit:                                        ; preds = %36
  %lpad.loopexit = landingpad { ptr, i32 }
          catch ptr null
  br label %65

.loopexit.split-lp:                               ; preds = %35
  %lpad.loopexit.split-lp = landingpad { ptr, i32 }
          catch ptr null
  br label %65

65:                                               ; preds = %.loopexit.split-lp, %.loopexit
  %lpad.phi = phi { ptr, i32 } [ %lpad.loopexit, %.loopexit ], [ %lpad.loopexit.split-lp, %.loopexit.split-lp ]
  %66 = extractvalue { ptr, i32 } %lpad.phi, 0
  call void @__clang_call_terminate(ptr %66) #37
  unreachable
}